; Function Attrs: mustprogress uwtable
define void @_ZN3gmx19VirtualSitesHandler15setVirtualSitesENS_8ArrayRefIK15InteractionListEEiiNS1_IK12ParticleTypeEE(ptr noundef nonnull readonly align 8 captures(none) dereferenceable(8) %0, ptr %1, ptr %2, i32 noundef %3, i32 noundef %4, ptr noundef readonly byval(%"class.gmx::ArrayRef.280") align 8 captures(none) %5) local_unnamed_addr #8 align 2 {
  %7 = alloca %"class.gmx::ArrayRef.280", align 8
  %8 = load ptr, ptr %0, align 8, !tbaa !4
  %9 = ptrtoint ptr %2 to i64
  %10 = ptrtoint ptr %1 to i64
  %11 = sub i64 %9, %10
  %12 = getelementptr inbounds nuw i8, ptr %1, i64 %11
  %13 = load ptr, ptr %5, align 8, !tbaa !301
  %14 = getelementptr inbounds nuw i8, ptr %5, i64 8
  %15 = load ptr, ptr %14, align 8, !tbaa !301
  %16 = ptrtoint ptr %15 to i64
  %17 = ptrtoint ptr %13 to i64
  %18 = sub i64 %16, %17
  %19 = getelementptr inbounds nuw i8, ptr %13, i64 %18
  call void @llvm.lifetime.start.p0(i64 16, ptr nonnull %7)
  %20 = getelementptr inbounds nuw i8, ptr %8, i64 40
  store ptr %1, ptr %20, align 8
  %.sroa.3.0..sroa_idx.i = getelementptr inbounds nuw i8, ptr %8, i64 48
  store ptr %12, ptr %.sroa.3.0..sroa_idx.i, align 8
  %21 = getelementptr inbounds nuw i8, ptr %8, i64 56
  %22 = getelementptr inbounds nuw i8, ptr %8, i64 24
  %.sroa.0.0.copyload.i = load ptr, ptr %22, align 8
  %.sroa.2.0..sroa_idx.i = getelementptr inbounds nuw i8, ptr %8, i64 32
  %.sroa.2.0.copyload.i = load ptr, ptr %.sroa.2.0..sroa_idx.i, align 8
  store ptr %13, ptr %7, align 8, !tbaa !301
  %23 = getelementptr inbounds nuw i8, ptr %7, i64 8
  store ptr %19, ptr %23, align 8, !tbaa !301
  %24 = getelementptr inbounds nuw i8, ptr %8, i64 16
  %25 = load ptr, ptr %24, align 8, !tbaa !60
  %26 = icmp ne ptr %25, null
  tail call void @_ZN3gmx13ThreadingInfo15setVirtualSitesENS_8ArrayRefIK15InteractionListEENS1_IK9t_iparamsEEiiNS1_IK12ParticleTypeEEb(ptr noundef nonnull align 8 dereferenceable(56) %21, ptr %1, ptr %12, ptr %.sroa.0.0.copyload.i, ptr %.sroa.2.0.copyload.i, i32 noundef %3, i32 noundef %4, ptr noundef nonnull byval(%"class.gmx::ArrayRef.280") align 8 %7, i1 noundef zeroext %26)
  call void @llvm.lifetime.end.p0(i64 16, ptr nonnull %7)
  ret void
}